; Function Attrs: nounwind uwtable
define ptr @l_Std_Range_forIn_x27_loop___at_Lean_PrettyPrinter_Delaborator_TopDownAnalyze_analyzeAppStagedCore_collectBottomUps___spec__1___boxed(ptr noundef readonly captures(none) %0) local_unnamed_addr #1 {
  %2 = load ptr, ptr %0, align 8, !tbaa !11
  %3 = getelementptr inbounds nuw i8, ptr %0, i64 8
  %4 = load ptr, ptr %3, align 8, !tbaa !11
  %5 = getelementptr inbounds nuw i8, ptr %0, i64 16
  %6 = load ptr, ptr %5, align 8, !tbaa !11
  %7 = getelementptr inbounds nuw i8, ptr %0, i64 24
  %8 = load ptr, ptr %7, align 8, !tbaa !11
  %9 = getelementptr inbounds nuw i8, ptr %0, i64 32
  %10 = load ptr, ptr %9, align 8, !tbaa !11
  %11 = getelementptr inbounds nuw i8, ptr %0, i64 40
  %12 = load ptr, ptr %11, align 8, !tbaa !11
  %13 = getelementptr inbounds nuw i8, ptr %0, i64 48
  %14 = load ptr, ptr %13, align 8, !tbaa !11
  %15 = getelementptr inbounds nuw i8, ptr %0, i64 72
  %16 = load ptr, ptr %15, align 8, !tbaa !11
  %17 = getelementptr inbounds nuw i8, ptr %0, i64 80
  %18 = load ptr, ptr %17, align 8, !tbaa !11
  %19 = getelementptr inbounds nuw i8, ptr %0, i64 88
  %20 = load ptr, ptr %19, align 8, !tbaa !11
  %21 = getelementptr inbounds nuw i8, ptr %0, i64 96
  %22 = load ptr, ptr %21, align 8, !tbaa !11
  %23 = getelementptr inbounds nuw i8, ptr %0, i64 104
  %24 = load ptr, ptr %23, align 8, !tbaa !11
  %25 = getelementptr inbounds nuw i8, ptr %0, i64 112
  %26 = load ptr, ptr %25, align 8, !tbaa !11
  %27 = getelementptr inbounds nuw i8, ptr %0, i64 120
  %28 = load ptr, ptr %27, align 8, !tbaa !11
  %29 = getelementptr inbounds nuw i8, ptr %0, i64 128
  %30 = load ptr, ptr %29, align 8, !tbaa !11
  %31 = getelementptr inbounds nuw i8, ptr %0, i64 136
  %32 = load ptr, ptr %31, align 8, !tbaa !11
  %33 = tail call ptr @l_Std_Range_forIn_x27_loop___at_Lean_PrettyPrinter_Delaborator_TopDownAnalyze_analyzeAppStagedCore_collectBottomUps___spec__1(ptr noundef %2, ptr noundef %4, ptr noundef %6, ptr noundef %8, ptr noundef %10, ptr noundef %12, ptr noundef %14, ptr poison, ptr poison, ptr poison, ptr noundef %18, ptr noundef %20, ptr noundef %22, ptr noundef %24, ptr noundef %26, ptr noundef %28, ptr noundef %30, ptr noundef %32)
  %34 = ptrtoint ptr %16 to i64
  %35 = and i64 %34, 1
  %.not = icmp eq i64 %35, 0
  br i1 %.not, label %36, label %lean_dec.exit45

36:                                               ; preds = %1
  %37 = load i32, ptr %16, align 4, !tbaa !8
  %38 = icmp sgt i32 %37, 1
  br i1 %38, label %39, label %41, !prof !13

39:                                               ; preds = %36
  %40 = add nsw i32 %37, -1
  store i32 %40, ptr %16, align 4, !tbaa !8
  br label %lean_dec.exit45

41:                                               ; preds = %36
  %.not.i = icmp eq i32 %37, 0
  br i1 %.not.i, label %lean_dec.exit45, label %42

42:                                               ; preds = %41
  tail call void @lean_dec_ref_cold(ptr noundef nonnull %16) #7
  br label %lean_dec.exit45

lean_dec.exit45:                                  ; preds = %42, %41, %39, %1
  %43 = ptrtoint ptr %10 to i64
  %44 = and i64 %43, 1
  %.not54 = icmp eq i64 %44, 0
  br i1 %.not54, label %45, label %lean_dec.exit44

45:                                               ; preds = %lean_dec.exit45
  %46 = load i32, ptr %10, align 4, !tbaa !8
  %47 = icmp sgt i32 %46, 1
  br i1 %47, label %48, label %50, !prof !13

48:                                               ; preds = %45
  %49 = add nsw i32 %46, -1
  store i32 %49, ptr %10, align 4, !tbaa !8
  br label %lean_dec.exit44

50:                                               ; preds = %45
  %.not.i46 = icmp eq i32 %46, 0
  br i1 %.not.i46, label %lean_dec.exit44, label %51

51:                                               ; preds = %50
  tail call void @lean_dec_ref_cold(ptr noundef nonnull %10) #7
  br label %lean_dec.exit44

lean_dec.exit44:                                  ; preds = %51, %50, %48, %lean_dec.exit45
  %52 = ptrtoint ptr %6 to i64
  %53 = and i64 %52, 1
  %.not55 = icmp eq i64 %53, 0
  br i1 %.not55, label %54, label %lean_dec.exit43

54:                                               ; preds = %lean_dec.exit44
  %55 = load i32, ptr %6, align 4, !tbaa !8
  %56 = icmp sgt i32 %55, 1
  br i1 %56, label %57, label %59, !prof !13

57:                                               ; preds = %54
  %58 = add nsw i32 %55, -1
  store i32 %58, ptr %6, align 4, !tbaa !8
  br label %lean_dec.exit43

59:                                               ; preds = %54
  %.not.i48 = icmp eq i32 %55, 0
  br i1 %.not.i48, label %lean_dec.exit43, label %60

60:                                               ; preds = %59
  tail call void @lean_dec_ref_cold(ptr noundef nonnull %6) #7
  br label %lean_dec.exit43

lean_dec.exit43:                                  ; preds = %60, %59, %57, %lean_dec.exit44
  %61 = ptrtoint ptr %4 to i64
  %62 = and i64 %61, 1
  %.not56 = icmp eq i64 %62, 0
  br i1 %.not56, label %63, label %lean_dec.exit42

63:                                               ; preds = %lean_dec.exit43
  %64 = load i32, ptr %4, align 4, !tbaa !8
  %65 = icmp sgt i32 %64, 1
  br i1 %65, label %66, label %68, !prof !13

66:                                               ; preds = %63
  %67 = add nsw i32 %64, -1
  store i32 %67, ptr %4, align 4, !tbaa !8
  br label %lean_dec.exit42

68:                                               ; preds = %63
  %.not.i50 = icmp eq i32 %64, 0
  br i1 %.not.i50, label %lean_dec.exit42, label %69

69:                                               ; preds = %68
  tail call void @lean_dec_ref_cold(ptr noundef nonnull %4) #7
  br label %lean_dec.exit42

lean_dec.exit42:                                  ; preds = %69, %68, %66, %lean_dec.exit43
  %70 = ptrtoint ptr %2 to i64
  %71 = and i64 %70, 1
  %.not57 = icmp eq i64 %71, 0
  br i1 %.not57, label %72, label %lean_dec.exit

72:                                               ; preds = %lean_dec.exit42
  %73 = load i32, ptr %2, align 4, !tbaa !8
  %74 = icmp sgt i32 %73, 1
  br i1 %74, label %75, label %77, !prof !13

75:                                               ; preds = %72
  %76 = add nsw i32 %73, -1
  store i32 %76, ptr %2, align 4, !tbaa !8
  br label %lean_dec.exit

77:                                               ; preds = %72
  %.not.i52 = icmp eq i32 %73, 0
  br i1 %.not.i52, label %lean_dec.exit, label %78

78:                                               ; preds = %77
  tail call void @lean_dec_ref_cold(ptr noundef nonnull %2) #7
  br label %lean_dec.exit

lean_dec.exit:                                    ; preds = %78, %77, %75, %lean_dec.exit42
  ret ptr %33
}